target datalayout = "e-m:e-p270:32:32-p271:32:32-p272:64:64-i64:64-i128:128-f80:128-n8:16:32:64-S128"
target triple = "x86_64-pc-linux-gnu"

%struct.AVFilterContext = type { ptr, ptr, ptr, ptr, ptr, i32, ptr, ptr, i32, ptr, ptr, i32, i32, ptr, ptr, ptr, ptr, i32, ptr, i32, i32 }
%struct.XFadeContext = type { ptr, i32, i64, i64, ptr, i32, i32, i32, i64, i64, i64, i64, i32, [2 x i32], [2 x ptr], i32, [4 x i16], [4 x i16], ptr, ptr }
%struct.AVRational = type { i32, i32 }
%struct.AVFrame = type { [8 x ptr], [8 x i32], ptr, i32, i32, i32, i32, i32, %struct.AVRational, i64, i64, %struct.AVRational, i32, ptr, i32, i32, [8 x ptr], ptr, i32, ptr, i32, i32, i32, i32, i32, i32, i32, i64, ptr, i32, ptr, ptr, i64, i64, i64, i64, ptr, %struct.AVChannelLayout, i64 }
%struct.AVChannelLayout = type { i32, i32, %union.anon.1, ptr }
%union.anon.1 = type { i64 }

; Function Attrs: alwaysinline nounwind willreturn memory(none) uwtable
define internal float @av_clipf_c(float noundef %0, float noundef %1, float noundef %2) #8 {
  %4 = alloca float, align 4
  %5 = alloca float, align 4
  %6 = alloca float, align 4
  store float %0, ptr %4, align 4, !tbaa !90
  store float %1, ptr %5, align 4, !tbaa !90
  store float %2, ptr %6, align 4, !tbaa !90
  %7 = load float, ptr %4, align 4, !tbaa !90
  %8 = load float, ptr %5, align 4, !tbaa !90
  %9 = fcmp nsz ogt float %7, %8
  br i1 %9, label %10, label %12

10:                                               ; preds = %3
  %11 = load float, ptr %4, align 4, !tbaa !90
  br label %14

12:                                               ; preds = %3
  %13 = load float, ptr %5, align 4, !tbaa !90
  br label %14

14:                                               ; preds = %12, %10
  %15 = phi nsz float [ %11, %10 ], [ %13, %12 ]
  %16 = load float, ptr %6, align 4, !tbaa !90
  %17 = fcmp nsz ogt float %15, %16
  br i1 %17, label %18, label %20

18:                                               ; preds = %14
  %19 = load float, ptr %6, align 4, !tbaa !90
  br label %30

20:                                               ; preds = %14
  %21 = load float, ptr %4, align 4, !tbaa !90
  %22 = load float, ptr %5, align 4, !tbaa !90
  %23 = fcmp nsz ogt float %21, %22
  br i1 %23, label %24, label %26

24:                                               ; preds = %20
  %25 = load float, ptr %4, align 4, !tbaa !90
  br label %28

26:                                               ; preds = %20
  %27 = load float, ptr %5, align 4, !tbaa !90
  br label %28

28:                                               ; preds = %26, %24
  %29 = phi nsz float [ %25, %24 ], [ %27, %26 ]
  br label %30

30:                                               ; preds = %28, %18
  %31 = phi nsz float [ %19, %18 ], [ %29, %28 ]
  ret float %31
}

; Function Attrs: inlinehint nounwind uwtable
define internal float @mix(float noundef %0, float noundef %1, float noundef %2) #4 {
  %4 = alloca float, align 4
  %5 = alloca float, align 4
  %6 = alloca float, align 4
  store float %0, ptr %4, align 4, !tbaa !90
  store float %1, ptr %5, align 4, !tbaa !90
  store float %2, ptr %6, align 4, !tbaa !90
  %7 = load float, ptr %4, align 4, !tbaa !90
  %8 = load float, ptr %6, align 4, !tbaa !90
  %9 = load float, ptr %5, align 4, !tbaa !90
  %10 = load float, ptr %6, align 4, !tbaa !90
  %11 = fsub nsz float 1.000000e+00, %10
  %12 = fmul nsz float %9, %11
  %13 = call nsz float @llvm.fmuladd.f32(float %7, float %8, float %12)
  ret float %13
}

; Function Attrs: inlinehint nounwind uwtable
define internal float @smoothstep(float noundef %0, float noundef %1, float noundef %2) #4 {
  %4 = alloca float, align 4
  %5 = alloca float, align 4
  %6 = alloca float, align 4
  %7 = alloca float, align 4
  store float %0, ptr %4, align 4, !tbaa !90
  store float %1, ptr %5, align 4, !tbaa !90
  store float %2, ptr %6, align 4, !tbaa !90
  call void @llvm.lifetime.start.p0(i64 4, ptr %7) #10
  %8 = load float, ptr %6, align 4, !tbaa !90
  %9 = load float, ptr %4, align 4, !tbaa !90
  %10 = fsub nsz float %8, %9
  %11 = load float, ptr %5, align 4, !tbaa !90
  %12 = load float, ptr %4, align 4, !tbaa !90
  %13 = fsub nsz float %11, %12
  %14 = fdiv nsz float %10, %13
  %15 = call nsz float @av_clipf_c(float noundef %14, float noundef 0.000000e+00, float noundef 1.000000e+00) #11
  store float %15, ptr %7, align 4, !tbaa !90
  %16 = load float, ptr %7, align 4, !tbaa !90
  %17 = load float, ptr %7, align 4, !tbaa !90
  %18 = fmul nsz float %16, %17
  %19 = load float, ptr %7, align 4, !tbaa !90
  %20 = call nsz float @llvm.fmuladd.f32(float -2.000000e+00, float %19, float 3.000000e+00)
  %21 = fmul nsz float %18, %20
  call void @llvm.lifetime.end.p0(i64 4, ptr %7) #10
  ret float %21
}

; Function Attrs: nounwind uwtable
define internal void @smoothdown16_transition(ptr noundef %0, ptr noundef %1, ptr noundef %2, ptr noundef %3, float noundef %4, i32 noundef %5, i32 noundef %6, i32 noundef %7) #1 {
  %9 = alloca ptr, align 8
  %10 = alloca ptr, align 8
  %11 = alloca ptr, align 8
  %12 = alloca ptr, align 8
  %13 = alloca float, align 4
  %14 = alloca i32, align 4
  %15 = alloca i32, align 4
  %16 = alloca i32, align 4
  %17 = alloca ptr, align 8
  %18 = alloca i32, align 4
  %19 = alloca float, align 4
  %20 = alloca i32, align 4
  %21 = alloca i32, align 4
  %22 = alloca float, align 4
  %23 = alloca i32, align 4
  %24 = alloca i32, align 4
  %25 = alloca ptr, align 8
  %26 = alloca ptr, align 8
  %27 = alloca ptr, align 8
  store ptr %0, ptr %9, align 8, !tbaa !4
  store ptr %1, ptr %10, align 8, !tbaa !36
  store ptr %2, ptr %11, align 8, !tbaa !36
  store ptr %3, ptr %12, align 8, !tbaa !36
  store float %4, ptr %13, align 4, !tbaa !90
  store i32 %5, ptr %14, align 4, !tbaa !32
  store i32 %6, ptr %15, align 4, !tbaa !32
  store i32 %7, ptr %16, align 4, !tbaa !32
  call void @llvm.lifetime.start.p0(i64 8, ptr %17) #10
  %28 = load ptr, ptr %9, align 8, !tbaa !4
  %29 = getelementptr inbounds nuw %struct.AVFilterContext, ptr %28, i32 0, i32 9
  %30 = load ptr, ptr %29, align 8, !tbaa !9
  store ptr %30, ptr %17, align 8, !tbaa !22
  call void @llvm.lifetime.start.p0(i64 4, ptr %18) #10
  %31 = load ptr, ptr %12, align 8, !tbaa !36
  %32 = getelementptr inbounds nuw %struct.AVFrame, ptr %31, i32 0, i32 3
  %33 = load i32, ptr %32, align 8, !tbaa !92
  store i32 %33, ptr %18, align 4, !tbaa !32
  call void @llvm.lifetime.start.p0(i64 4, ptr %19) #10
  %34 = load ptr, ptr %12, align 8, !tbaa !36
  %35 = getelementptr inbounds nuw %struct.AVFrame, ptr %34, i32 0, i32 4
  %36 = load i32, ptr %35, align 4, !tbaa !95
  %37 = sitofp i32 %36 to float
  store float %37, ptr %19, align 4, !tbaa !90
  call void @llvm.lifetime.start.p0(i64 4, ptr %20) #10
  %38 = load i32, ptr %14, align 4, !tbaa !32
  store i32 %38, ptr %20, align 4, !tbaa !32
  br label %39

39:                                               ; preds = %146, %8
  %40 = load i32, ptr %20, align 4, !tbaa !32
  %41 = load i32, ptr %15, align 4, !tbaa !32
  %42 = icmp slt i32 %40, %41
  br i1 %42, label %44, label %43

43:                                               ; preds = %39
  store i32 2, ptr %21, align 4
  call void @llvm.lifetime.end.p0(i64 4, ptr %20) #10
  br label %149

44:                                               ; preds = %39
  call void @llvm.lifetime.start.p0(i64 4, ptr %22) #10
  %45 = load float, ptr %19, align 4, !tbaa !90
  %46 = fsub nsz float %45, 1.000000e+00
  %47 = load i32, ptr %20, align 4, !tbaa !32
  %48 = sitofp i32 %47 to float
  %49 = fsub nsz float %46, %48
  %50 = load float, ptr %19, align 4, !tbaa !90
  %51 = fdiv nsz float %49, %50
  %52 = fadd nsz float 1.000000e+00, %51
  %53 = load float, ptr %13, align 4, !tbaa !90
  %54 = fneg nsz float %53
  %55 = call nsz float @llvm.fmuladd.f32(float %54, float 2.000000e+00, float %52)
  store float %55, ptr %22, align 4, !tbaa !90
  call void @llvm.lifetime.start.p0(i64 4, ptr %23) #10
  store i32 0, ptr %23, align 4, !tbaa !32
  br label %56

56:                                               ; preds = %142, %44
  %57 = load i32, ptr %23, align 4, !tbaa !32
  %58 = load i32, ptr %18, align 4, !tbaa !32
  %59 = icmp slt i32 %57, %58
  br i1 %59, label %61, label %60

60:                                               ; preds = %56
  store i32 5, ptr %21, align 4
  call void @llvm.lifetime.end.p0(i64 4, ptr %23) #10
  br label %145

61:                                               ; preds = %56
  call void @llvm.lifetime.start.p0(i64 4, ptr %24) #10
  store i32 0, ptr %24, align 4, !tbaa !32
  br label %62

62:                                               ; preds = %138, %61
  %63 = load i32, ptr %24, align 4, !tbaa !32
  %64 = load ptr, ptr %17, align 8, !tbaa !22
  %65 = getelementptr inbounds nuw %struct.XFadeContext, ptr %64, i32 0, i32 5
  %66 = load i32, ptr %65, align 8, !tbaa !82
  %67 = icmp slt i32 %63, %66
  br i1 %67, label %69, label %68

68:                                               ; preds = %62
  store i32 8, ptr %21, align 4
  call void @llvm.lifetime.end.p0(i64 4, ptr %24) #10
  br label %141

69:                                               ; preds = %62
  call void @llvm.lifetime.start.p0(i64 8, ptr %25) #10
  %70 = load ptr, ptr %10, align 8, !tbaa !36
  %71 = getelementptr inbounds nuw %struct.AVFrame, ptr %70, i32 0, i32 0
  %72 = load i32, ptr %24, align 4, !tbaa !32
  %73 = sext i32 %72 to i64
  %74 = getelementptr inbounds [8 x ptr], ptr %71, i64 0, i64 %73
  %75 = load ptr, ptr %74, align 8, !tbaa !96
  %76 = load i32, ptr %20, align 4, !tbaa !32
  %77 = load ptr, ptr %10, align 8, !tbaa !36
  %78 = getelementptr inbounds nuw %struct.AVFrame, ptr %77, i32 0, i32 1
  %79 = load i32, ptr %24, align 4, !tbaa !32
  %80 = sext i32 %79 to i64
  %81 = getelementptr inbounds [8 x i32], ptr %78, i64 0, i64 %80
  %82 = load i32, ptr %81, align 4, !tbaa !32
  %83 = mul nsw i32 %76, %82
  %84 = sext i32 %83 to i64
  %85 = getelementptr inbounds i8, ptr %75, i64 %84
  store ptr %85, ptr %25, align 8, !tbaa !101
  call void @llvm.lifetime.start.p0(i64 8, ptr %26) #10
  %86 = load ptr, ptr %11, align 8, !tbaa !36
  %87 = getelementptr inbounds nuw %struct.AVFrame, ptr %86, i32 0, i32 0
  %88 = load i32, ptr %24, align 4, !tbaa !32
  %89 = sext i32 %88 to i64
  %90 = getelementptr inbounds [8 x ptr], ptr %87, i64 0, i64 %89
  %91 = load ptr, ptr %90, align 8, !tbaa !96
  %92 = load i32, ptr %20, align 4, !tbaa !32
  %93 = load ptr, ptr %11, align 8, !tbaa !36
  %94 = getelementptr inbounds nuw %struct.AVFrame, ptr %93, i32 0, i32 1
  %95 = load i32, ptr %24, align 4, !tbaa !32
  %96 = sext i32 %95 to i64
  %97 = getelementptr inbounds [8 x i32], ptr %94, i64 0, i64 %96
  %98 = load i32, ptr %97, align 4, !tbaa !32
  %99 = mul nsw i32 %92, %98
  %100 = sext i32 %99 to i64
  %101 = getelementptr inbounds i8, ptr %91, i64 %100
  store ptr %101, ptr %26, align 8, !tbaa !101
  call void @llvm.lifetime.start.p0(i64 8, ptr %27) #10
  %102 = load ptr, ptr %12, align 8, !tbaa !36
  %103 = getelementptr inbounds nuw %struct.AVFrame, ptr %102, i32 0, i32 0
  %104 = load i32, ptr %24, align 4, !tbaa !32
  %105 = sext i32 %104 to i64
  %106 = getelementptr inbounds [8 x ptr], ptr %103, i64 0, i64 %105
  %107 = load ptr, ptr %106, align 8, !tbaa !96
  %108 = load i32, ptr %20, align 4, !tbaa !32
  %109 = load ptr, ptr %12, align 8, !tbaa !36
  %110 = getelementptr inbounds nuw %struct.AVFrame, ptr %109, i32 0, i32 1
  %111 = load i32, ptr %24, align 4, !tbaa !32
  %112 = sext i32 %111 to i64
  %113 = getelementptr inbounds [8 x i32], ptr %110, i64 0, i64 %112
  %114 = load i32, ptr %113, align 4, !tbaa !32
  %115 = mul nsw i32 %108, %114
  %116 = sext i32 %115 to i64
  %117 = getelementptr inbounds i8, ptr %107, i64 %116
  store ptr %117, ptr %27, align 8, !tbaa !101
  %118 = load ptr, ptr %26, align 8, !tbaa !101
  %119 = load i32, ptr %23, align 4, !tbaa !32
  %120 = sext i32 %119 to i64
  %121 = getelementptr inbounds i16, ptr %118, i64 %120
  %122 = load i16, ptr %121, align 2, !tbaa !84
  %123 = uitofp i16 %122 to float
  %124 = load ptr, ptr %25, align 8, !tbaa !101
  %125 = load i32, ptr %23, align 4, !tbaa !32
  %126 = sext i32 %125 to i64
  %127 = getelementptr inbounds i16, ptr %124, i64 %126
  %128 = load i16, ptr %127, align 2, !tbaa !84
  %129 = uitofp i16 %128 to float
  %130 = load float, ptr %22, align 4, !tbaa !90
  %131 = call nsz float @smoothstep(float noundef 0.000000e+00, float noundef 1.000000e+00, float noundef %130)
  %132 = call nsz float @mix(float noundef %123, float noundef %129, float noundef %131)
  %133 = fptoui float %132 to i16
  %134 = load ptr, ptr %27, align 8, !tbaa !101
  %135 = load i32, ptr %23, align 4, !tbaa !32
  %136 = sext i32 %135 to i64
  %137 = getelementptr inbounds i16, ptr %134, i64 %136
  store i16 %133, ptr %137, align 2, !tbaa !84
  call void @llvm.lifetime.end.p0(i64 8, ptr %27) #10
  call void @llvm.lifetime.end.p0(i64 8, ptr %26) #10
  call void @llvm.lifetime.end.p0(i64 8, ptr %25) #10
  br label %138

138:                                              ; preds = %69
  %139 = load i32, ptr %24, align 4, !tbaa !32
  %140 = add nsw i32 %139, 1
  store i32 %140, ptr %24, align 4, !tbaa !32
  br label %62, !llvm.loop !219

141:                                              ; preds = %68
  br label %142

142:                                              ; preds = %141
  %143 = load i32, ptr %23, align 4, !tbaa !32
  %144 = add nsw i32 %143, 1
  store i32 %144, ptr %23, align 4, !tbaa !32
  br label %56, !llvm.loop !220

145:                                              ; preds = %60
  call void @llvm.lifetime.end.p0(i64 4, ptr %22) #10
  br label %146

146:                                              ; preds = %145
  %147 = load i32, ptr %20, align 4, !tbaa !32
  %148 = add nsw i32 %147, 1
  store i32 %148, ptr %20, align 4, !tbaa !32
  br label %39, !llvm.loop !221

149:                                              ; preds = %43
  call void @llvm.lifetime.end.p0(i64 4, ptr %19) #10
  call void @llvm.lifetime.end.p0(i64 4, ptr %18) #10
  call void @llvm.lifetime.end.p0(i64 8, ptr %17) #10
  ret void
}