; Function Attrs: nofree norecurse nosync nounwind memory(readwrite, inaccessiblemem: none) uwtable
define internal void @smoothdown16_transition(ptr noundef readonly captures(none) %0, ptr noundef readonly captures(none) %1, ptr noundef readonly captures(none) %2, ptr noundef readonly captures(none) %3, float noundef %4, i32 noundef %5, i32 noundef %6, i32 %7) #6 {
  %9 = getelementptr inbounds nuw i8, ptr %3, i64 104
  %10 = load i32, ptr %9, align 8, !tbaa !85
  %11 = getelementptr inbounds nuw i8, ptr %3, i64 108
  %12 = load i32, ptr %11, align 4, !tbaa !88
  %13 = sitofp i32 %12 to float
  %14 = icmp slt i32 %5, %6
  br i1 %14, label %.lr.ph, label %._crit_edge

.lr.ph:                                           ; preds = %8
  %15 = fadd nsz float %13, -1.000000e+00
  %16 = fneg nsz float %4
  %17 = icmp sgt i32 %10, 0
  %18 = getelementptr inbounds nuw i8, ptr %1, i64 64
  %19 = getelementptr inbounds nuw i8, ptr %2, i64 64
  %20 = getelementptr inbounds nuw i8, ptr %3, i64 64
  br i1 %17, label %.lr.ph.split.us, label %._crit_edge

.lr.ph.split.us:                                  ; preds = %.lr.ph
  %21 = getelementptr inbounds nuw i8, ptr %0, i64 72
  %22 = load ptr, ptr %21, align 8, !tbaa !4
  %23 = getelementptr inbounds nuw i8, ptr %22, i64 40
  %24 = load i32, ptr %23, align 8, !tbaa !77
  %25 = icmp sgt i32 %24, 0
  br i1 %25, label %.preheader.lr.ph.us.us.preheader, label %._crit_edge

.preheader.lr.ph.us.us.preheader:                 ; preds = %.lr.ph.split.us
  %wide.trip.count55 = zext nneg i32 %10 to i64
  %wide.trip.count = zext nneg i32 %24 to i64
  br label %.preheader.lr.ph.us.us

.preheader.lr.ph.us.us:                           ; preds = %.preheader.lr.ph.us.us.preheader, %._crit_edge42.split.us.us.us
  %.043.us.us = phi i32 [ %70, %._crit_edge42.split.us.us.us ], [ %5, %.preheader.lr.ph.us.us.preheader ]
  %26 = sitofp i32 %.043.us.us to float
  %27 = fsub nsz float %15, %26
  %28 = fdiv nsz float %27, %13
  %29 = fadd nsz float %28, 1.000000e+00
  %30 = tail call nsz float @llvm.fmuladd.f32(float %16, float 2.000000e+00, float %29)
  %31 = fcmp nsz ogt float %30, 0.000000e+00
  %32 = select nsz i1 %31, float %30, float 0.000000e+00
  %33 = fcmp nsz ogt float %32, 1.000000e+00
  %..i.i.us.us = select nsz i1 %33, float 1.000000e+00, float %32
  %34 = fmul nsz float %..i.i.us.us, %..i.i.us.us
  %35 = tail call nsz float @llvm.fmuladd.f32(float %..i.i.us.us, float -2.000000e+00, float 3.000000e+00)
  %36 = fmul nsz float %34, %35
  %37 = fsub nsz float 1.000000e+00, %36
  br label %.preheader.us.us.us

.preheader.us.us.us:                              ; preds = %._crit_edge.us.us.us, %.preheader.lr.ph.us.us
  %indvars.iv52 = phi i64 [ %indvars.iv.next53, %._crit_edge.us.us.us ], [ 0, %.preheader.lr.ph.us.us ]
  br label %38

38:                                               ; preds = %38, %.preheader.us.us.us
  %indvars.iv = phi i64 [ %indvars.iv.next, %38 ], [ 0, %.preheader.us.us.us ]
  %39 = getelementptr inbounds nuw [8 x ptr], ptr %1, i64 0, i64 %indvars.iv
  %40 = load ptr, ptr %39, align 8, !tbaa !89
  %41 = getelementptr inbounds nuw [8 x i32], ptr %18, i64 0, i64 %indvars.iv
  %42 = load i32, ptr %41, align 4, !tbaa !31
  %43 = mul nsw i32 %42, %.043.us.us
  %44 = sext i32 %43 to i64
  %45 = getelementptr inbounds i8, ptr %40, i64 %44
  %46 = getelementptr inbounds nuw [8 x ptr], ptr %2, i64 0, i64 %indvars.iv
  %47 = load ptr, ptr %46, align 8, !tbaa !89
  %48 = getelementptr inbounds nuw [8 x i32], ptr %19, i64 0, i64 %indvars.iv
  %49 = load i32, ptr %48, align 4, !tbaa !31
  %50 = mul nsw i32 %49, %.043.us.us
  %51 = sext i32 %50 to i64
  %52 = getelementptr inbounds i8, ptr %47, i64 %51
  %53 = getelementptr inbounds nuw [8 x ptr], ptr %3, i64 0, i64 %indvars.iv
  %54 = load ptr, ptr %53, align 8, !tbaa !89
  %55 = getelementptr inbounds nuw [8 x i32], ptr %20, i64 0, i64 %indvars.iv
  %56 = load i32, ptr %55, align 4, !tbaa !31
  %57 = mul nsw i32 %56, %.043.us.us
  %58 = sext i32 %57 to i64
  %59 = getelementptr inbounds i8, ptr %54, i64 %58
  %60 = getelementptr inbounds nuw i16, ptr %52, i64 %indvars.iv52
  %61 = load i16, ptr %60, align 2, !tbaa !79
  %62 = uitofp i16 %61 to float
  %63 = getelementptr inbounds nuw i16, ptr %45, i64 %indvars.iv52
  %64 = load i16, ptr %63, align 2, !tbaa !79
  %65 = uitofp i16 %64 to float
  %66 = fmul nsz float %37, %65
  %67 = tail call nsz noundef float @llvm.fmuladd.f32(float %62, float %36, float %66)
  %68 = fptoui float %67 to i16
  %69 = getelementptr inbounds nuw i16, ptr %59, i64 %indvars.iv52
  store i16 %68, ptr %69, align 2, !tbaa !79
  %indvars.iv.next = add nuw nsw i64 %indvars.iv, 1
  %exitcond.not = icmp eq i64 %indvars.iv.next, %wide.trip.count
  br i1 %exitcond.not, label %._crit_edge.us.us.us, label %38, !llvm.loop !211

._crit_edge.us.us.us:                             ; preds = %38
  %indvars.iv.next53 = add nuw nsw i64 %indvars.iv52, 1
  %exitcond56.not = icmp eq i64 %indvars.iv.next53, %wide.trip.count55
  br i1 %exitcond56.not, label %._crit_edge42.split.us.us.us, label %.preheader.us.us.us, !llvm.loop !212

._crit_edge42.split.us.us.us:                     ; preds = %._crit_edge.us.us.us
  %70 = add nsw i32 %.043.us.us, 1
  %exitcond57.not = icmp eq i32 %70, %6
  br i1 %exitcond57.not, label %._crit_edge, label %.preheader.lr.ph.us.us, !llvm.loop !213

._crit_edge:                                      ; preds = %._crit_edge42.split.us.us.us, %.lr.ph.split.us, %.lr.ph, %8
  ret void
}